target datalayout = "e-m:e-p270:32:32-p271:32:32-p272:64:64-i64:64-i128:128-f80:128-n8:16:32:64-S128"
target triple = "x86_64-pc-linux-gnu"

%struct._address = type { i32, i32, ptr, ptr }
%struct._olc_info_t = type { i16, %struct._channel_info_t, %struct._channel_info_t }
%struct._channel_info_t = type { [32 x i8], ptr, %struct._unicast_addr_t, %struct._unicast_addr_t, i32, i8, i8 }
%struct._unicast_addr_t = type { %struct._address, [16 x i8], i32 }

@upcoming_olc = internal global ptr null, align 8
@upcoming_channel = internal global ptr null, align 8
@codec_type = hidden global ptr null, align 8
@ett_h245_OLC_reverseLogicalChannelParameters = internal global i32 0, align 4

; Function Attrs: null_pointer_is_valid sspstrong uwtable
define internal i32 @dissect_h245_OLC_reverseLogicalChannelParameters(ptr noundef %0, i32 noundef %1, ptr noundef %2, ptr noundef %3, i32 noundef %4) #1 {
  %6 = alloca ptr, align 8
  %7 = alloca i32, align 4
  %8 = alloca ptr, align 8
  %9 = alloca ptr, align 8
  %10 = alloca i32, align 4
  store ptr %0, ptr %6, align 8
  store i32 %1, ptr %7, align 4
  store ptr %2, ptr %8, align 8
  store ptr %3, ptr %9, align 8
  store i32 %4, ptr %10, align 4
  %11 = load ptr, ptr @upcoming_olc, align 8
  %12 = icmp ne ptr %11, null
  br i1 %12, label %13, label %16

13:                                               ; preds = %5
  %14 = load ptr, ptr @upcoming_olc, align 8
  %15 = getelementptr inbounds nuw %struct._olc_info_t, ptr %14, i32 0, i32 2
  br label %17

16:                                               ; preds = %5
  br label %17

17:                                               ; preds = %16, %13
  %18 = phi ptr [ %15, %13 ], [ null, %16 ]
  store ptr %18, ptr @upcoming_channel, align 8
  %19 = load ptr, ptr %6, align 8
  %20 = load i32, ptr %7, align 4
  %21 = load ptr, ptr %8, align 8
  %22 = load ptr, ptr %9, align 8
  %23 = load i32, ptr %10, align 4
  %24 = load i32, ptr @ett_h245_OLC_reverseLogicalChannelParameters, align 4
  %25 = call i32 @dissect_per_sequence(ptr noundef %19, i32 noundef %20, ptr noundef %21, ptr noundef %22, i32 noundef %23, i32 noundef %24, ptr noundef @OLC_reverseLogicalChannelParameters_sequence)
  store i32 %25, ptr %7, align 4
  %26 = load ptr, ptr @upcoming_channel, align 8
  %27 = icmp ne ptr %26, null
  br i1 %27, label %28, label %37

28:                                               ; preds = %17
  %29 = load ptr, ptr @codec_type, align 8
  %30 = icmp ne ptr %29, null
  br i1 %30, label %31, label %37

31:                                               ; preds = %28
  %32 = load ptr, ptr @upcoming_channel, align 8
  %33 = getelementptr inbounds nuw %struct._channel_info_t, ptr %32, i32 0, i32 0
  %34 = getelementptr inbounds [32 x i8], ptr %33, i64 0, i64 0
  %35 = load ptr, ptr @codec_type, align 8
  %36 = call i64 @g_strlcpy(ptr noundef %34, ptr noundef %35, i64 noundef 32)
  br label %37

37:                                               ; preds = %31, %28, %17
  store ptr null, ptr @upcoming_channel, align 8
  %38 = load i32, ptr %7, align 4
  ret i32 %38
}