; Function Attrs: null_pointer_is_valid sspstrong uwtable
define internal i32 @dissect_h245_OLC_reverseLogicalChannelParameters(ptr noundef %0, i32 noundef %1, ptr noundef %2, ptr noundef %3, i32 noundef %4) #1 {
  %6 = load ptr, ptr @upcoming_olc, align 8
  %.not = icmp eq ptr %6, null
  %7 = getelementptr inbounds nuw i8, ptr %6, i64 152
  %8 = select i1 %.not, ptr null, ptr %7
  store ptr %8, ptr @upcoming_channel, align 8
  %9 = load i32, ptr @ett_h245_OLC_reverseLogicalChannelParameters, align 4
  %10 = tail call i32 @dissect_per_sequence(ptr noundef %0, i32 noundef %1, ptr noundef %2, ptr noundef %3, i32 noundef %4, i32 noundef %9, ptr noundef nonnull @OLC_reverseLogicalChannelParameters_sequence)
  %11 = load ptr, ptr @upcoming_channel, align 8
  %12 = icmp ne ptr %11, null
  %13 = load ptr, ptr @codec_type, align 8
  %14 = icmp ne ptr %13, null
  %or.cond = select i1 %12, i1 %14, i1 false
  br i1 %or.cond, label %15, label %17

15:                                               ; preds = %5
  %16 = tail call i64 @g_strlcpy(ptr noundef nonnull %11, ptr noundef nonnull %13, i64 noundef 32)
  br label %17

17:                                               ; preds = %15, %5
  store ptr null, ptr @upcoming_channel, align 8
  ret i32 %10
}